target datalayout = "e-m:e-p270:32:32-p271:32:32-p272:64:64-i64:64-i128:128-f80:128-n8:16:32:64-S128"
target triple = "x86_64-pc-linux-gnu"

%struct.stat = type { i64, i64, i64, i32, i32, i32, i32, i64, i64, i64, i64, %struct.timespec, %struct.timespec, %struct.timespec, [3 x i64] }
%struct.timespec = type { i64, i64 }

@.str.1 = private unnamed_addr constant [122 x i8] c"generated/home/dtcxzyw/WorkSpace/Projects/compilers/llvm-opt-benchmark/bench/openusd/OpenUSD/pxr/base/arch/systemInfo.cpp\00", align 1
@.str.4 = private unnamed_addr constant [15 x i8] c"/proc/self/exe\00", align 1
@.str.5 = private unnamed_addr constant [56 x i8] c"Unable to read /proc/self/exe to obtain executable path\00", align 1
@"__func__._ZZN32pxrInternal_v0_24__pxrReserved__21ArchGetExecutablePathB5cxx11EvENK3$_0clEPcPm" = private unnamed_addr constant [11 x i8] c"operator()\00", align 1

; Function Attrs: mustprogress nounwind uwtable
define linkonce_odr noundef i64 @_ZNSt14numeric_limitsImE3maxEv() #3 comdat align 2 {
  ret i64 -1
}

; Function Attrs: mustprogress uwtable
define internal noundef zeroext i1 @"_ZZN32pxrInternal_v0_24__pxrReserved__21ArchGetExecutablePathB5cxx11EvENK3$_0clEPcPm"(ptr noundef nonnull align 1 dereferenceable(1) %0, ptr noundef %1, ptr noundef %2) #0 align 2 {
  %4 = alloca i1, align 1
  %5 = alloca ptr, align 8
  %6 = alloca ptr, align 8
  %7 = alloca ptr, align 8
  %8 = alloca i64, align 8
  %9 = alloca %struct.stat, align 8
  store ptr %0, ptr %5, align 8
  store ptr %1, ptr %6, align 8
  store ptr %2, ptr %7, align 8
  %10 = load ptr, ptr %6, align 8
  %11 = load ptr, ptr %7, align 8
  %12 = load i64, ptr %11, align 8
  %13 = call i64 @readlink(ptr noundef @.str.4, ptr noundef %10, i64 noundef %12) #9
  store i64 %13, ptr %8, align 8
  %14 = load i64, ptr %8, align 8
  %15 = icmp eq i64 %14, -1
  br i1 %15, label %16, label %19

16:                                               ; preds = %3
  call void @_ZN32pxrInternal_v0_24__pxrReserved__12Arch_WarningEPKcS1_mS1_(ptr noundef @.str.5, ptr noundef @"__func__._ZZN32pxrInternal_v0_24__pxrReserved__21ArchGetExecutablePathB5cxx11EvENK3$_0clEPcPm", i64 noundef 109, ptr noundef @.str.1)
  %17 = call noundef i64 @_ZNSt14numeric_limitsImE3maxEv() #9
  %18 = load ptr, ptr %7, align 8
  store i64 %17, ptr %18, align 8
  store i1 false, ptr %4, align 1
  br label %41

19:                                               ; preds = %3
  %20 = load i64, ptr %8, align 8
  %21 = load ptr, ptr %7, align 8
  %22 = load i64, ptr %21, align 8
  %23 = icmp uge i64 %20, %22
  br i1 %23, label %24, label %37

24:                                               ; preds = %19
  %25 = call i32 @lstat(ptr noundef @.str.4, ptr noundef %9) #9
  %26 = icmp eq i32 %25, 0
  br i1 %26, label %27, label %32

27:                                               ; preds = %24
  %28 = getelementptr inbounds nuw %struct.stat, ptr %9, i32 0, i32 8
  %29 = load i64, ptr %28, align 8
  %30 = add nsw i64 %29, 1
  %31 = load ptr, ptr %7, align 8
  store i64 %30, ptr %31, align 8
  br label %36

32:                                               ; preds = %24
  %33 = load ptr, ptr %7, align 8
  %34 = load i64, ptr %33, align 8
  %35 = mul i64 %34, 2
  store i64 %35, ptr %33, align 8
  br label %36

36:                                               ; preds = %32, %27
  store i1 false, ptr %4, align 1
  br label %41

37:                                               ; preds = %19
  %38 = load ptr, ptr %6, align 8
  %39 = load i64, ptr %8, align 8
  %40 = getelementptr inbounds i8, ptr %38, i64 %39
  store i8 0, ptr %40, align 1
  store i1 true, ptr %4, align 1
  br label %41

41:                                               ; preds = %37, %36, %16
  %42 = load i1, ptr %4, align 1
  ret i1 %42
}

; Function Attrs: mustprogress nounwind uwtable
define linkonce_odr noundef ptr @_ZNKSt9_Any_data9_M_accessEv(ptr noundef nonnull align 8 dereferenceable(16) %0) #3 comdat align 2 {
  %2 = alloca ptr, align 8
  store ptr %0, ptr %2, align 8
  %3 = load ptr, ptr %2, align 8
  %4 = getelementptr inbounds [16 x i8], ptr %3, i64 0, i64 0
  ret ptr %4
}

; Function Attrs: mustprogress uwtable
define internal noundef zeroext i1 @"_ZSt13__invoke_implIbRZN32pxrInternal_v0_24__pxrReserved__21ArchGetExecutablePathB5cxx11EvE3$_0JPcPmEET_St14__invoke_otherOT0_DpOT1_"(ptr noundef nonnull align 1 dereferenceable(1) %0, ptr noundef nonnull align 8 dereferenceable(8) %1, ptr noundef nonnull align 8 dereferenceable(8) %2) #0 {
  %4 = alloca ptr, align 8
  %5 = alloca ptr, align 8
  %6 = alloca ptr, align 8
  store ptr %0, ptr %4, align 8
  store ptr %1, ptr %5, align 8
  store ptr %2, ptr %6, align 8
  %7 = load ptr, ptr %4, align 8
  %8 = load ptr, ptr %5, align 8
  %9 = load ptr, ptr %8, align 8
  %10 = load ptr, ptr %6, align 8
  %11 = load ptr, ptr %10, align 8
  %12 = call noundef zeroext i1 @"_ZZN32pxrInternal_v0_24__pxrReserved__21ArchGetExecutablePathB5cxx11EvENK3$_0clEPcPm"(ptr noundef nonnull align 1 dereferenceable(1) %7, ptr noundef %9, ptr noundef %11)
  ret i1 %12
}

; Function Attrs: mustprogress nounwind uwtable
define internal noundef nonnull align 1 dereferenceable(1) ptr @"_ZNKSt9_Any_data9_M_accessIZN32pxrInternal_v0_24__pxrReserved__21ArchGetExecutablePathB5cxx11EvE3$_0EERKT_v"(ptr noundef nonnull align 8 dereferenceable(16) %0) #3 align 2 {
  %2 = alloca ptr, align 8
  store ptr %0, ptr %2, align 8
  %3 = load ptr, ptr %2, align 8
  %4 = call noundef ptr @_ZNKSt9_Any_data9_M_accessEv(ptr noundef nonnull align 8 dereferenceable(16) %3) #9
  ret ptr %4
}

; Function Attrs: mustprogress uwtable
define internal noundef zeroext i1 @"_ZSt10__invoke_rIbRZN32pxrInternal_v0_24__pxrReserved__21ArchGetExecutablePathB5cxx11EvE3$_0JPcPmEENSt9enable_ifIX16is_invocable_r_vIT_T0_DpT1_EES6_E4typeEOS7_DpOS8_"(ptr noundef nonnull align 1 dereferenceable(1) %0, ptr noundef nonnull align 8 dereferenceable(8) %1, ptr noundef nonnull align 8 dereferenceable(8) %2) #0 {
  %4 = alloca ptr, align 8
  %5 = alloca ptr, align 8
  %6 = alloca ptr, align 8
  store ptr %0, ptr %4, align 8
  store ptr %1, ptr %5, align 8
  store ptr %2, ptr %6, align 8
  %7 = load ptr, ptr %4, align 8
  %8 = load ptr, ptr %5, align 8
  %9 = load ptr, ptr %6, align 8
  %10 = call noundef zeroext i1 @"_ZSt13__invoke_implIbRZN32pxrInternal_v0_24__pxrReserved__21ArchGetExecutablePathB5cxx11EvE3$_0JPcPmEET_St14__invoke_otherOT0_DpOT1_"(ptr noundef nonnull align 1 dereferenceable(1) %7, ptr noundef nonnull align 8 dereferenceable(8) %8, ptr noundef nonnull align 8 dereferenceable(8) %9)
  ret i1 %10
}

; Function Attrs: mustprogress nounwind uwtable
define internal noundef ptr @"_ZNSt14_Function_base13_Base_managerIZN32pxrInternal_v0_24__pxrReserved__21ArchGetExecutablePathB5cxx11EvE3$_0E14_M_get_pointerERKSt9_Any_data"(ptr noundef nonnull align 8 dereferenceable(16) %0) #3 align 2 {
  %2 = alloca ptr, align 8
  %3 = alloca ptr, align 8
  store ptr %0, ptr %2, align 8
  %4 = load ptr, ptr %2, align 8
  %5 = call noundef nonnull align 1 dereferenceable(1) ptr @"_ZNKSt9_Any_data9_M_accessIZN32pxrInternal_v0_24__pxrReserved__21ArchGetExecutablePathB5cxx11EvE3$_0EERKT_v"(ptr noundef nonnull align 8 dereferenceable(16) %4) #9
  store ptr %5, ptr %3, align 8
  %6 = load ptr, ptr %3, align 8
  ret ptr %6
}

; Function Attrs: mustprogress uwtable
define internal noundef zeroext i1 @"_ZNSt17_Function_handlerIFbPcPmEZN32pxrInternal_v0_24__pxrReserved__21ArchGetExecutablePathB5cxx11EvE3$_0E9_M_invokeERKSt9_Any_dataOS0_OS1_"(ptr noundef nonnull align 8 dereferenceable(16) %0, ptr noundef nonnull align 8 dereferenceable(8) %1, ptr noundef nonnull align 8 dereferenceable(8) %2) #0 align 2 {
  %4 = alloca ptr, align 8
  %5 = alloca ptr, align 8
  %6 = alloca ptr, align 8
  store ptr %0, ptr %4, align 8
  store ptr %1, ptr %5, align 8
  store ptr %2, ptr %6, align 8
  %7 = load ptr, ptr %4, align 8
  %8 = call noundef ptr @"_ZNSt14_Function_base13_Base_managerIZN32pxrInternal_v0_24__pxrReserved__21ArchGetExecutablePathB5cxx11EvE3$_0E14_M_get_pointerERKSt9_Any_data"(ptr noundef nonnull align 8 dereferenceable(16) %7) #9
  %9 = load ptr, ptr %5, align 8
  %10 = load ptr, ptr %6, align 8
  %11 = call noundef zeroext i1 @"_ZSt10__invoke_rIbRZN32pxrInternal_v0_24__pxrReserved__21ArchGetExecutablePathB5cxx11EvE3$_0JPcPmEENSt9enable_ifIX16is_invocable_r_vIT_T0_DpT1_EES6_E4typeEOS7_DpOS8_"(ptr noundef nonnull align 1 dereferenceable(1) %8, ptr noundef nonnull align 8 dereferenceable(8) %9, ptr noundef nonnull align 8 dereferenceable(8) %10)
  ret i1 %11
}