; Function Attrs: mustprogress uwtable
define internal noundef zeroext i1 @"_ZNSt17_Function_handlerIFbPcPmEZN32pxrInternal_v0_24__pxrReserved__21ArchGetExecutablePathB5cxx11EvE3$_0E9_M_invokeERKSt9_Any_dataOS0_OS1_"(ptr nocapture nonnull readnone align 8 %0, ptr nocapture noundef nonnull readonly align 8 dereferenceable(8) %1, ptr nocapture noundef nonnull readonly align 8 dereferenceable(8) %2) #0 align 2 {
  %4 = alloca %struct.stat, align 8
  %.val = load ptr, ptr %1, align 8
  %.val3 = load ptr, ptr %2, align 8
  call void @llvm.lifetime.start.p0(i64 144, ptr nonnull %4)
  %5 = load i64, ptr %.val3, align 8
  %6 = tail call i64 @readlink(ptr noundef nonnull @.str.4, ptr noundef %.val, i64 noundef %5) #15
  %7 = icmp eq i64 %6, -1
  br i1 %7, label %8, label %9

8:                                                ; preds = %3
  tail call void @_ZN32pxrInternal_v0_24__pxrReserved__12Arch_WarningEPKcS1_mS1_(ptr noundef nonnull @.str.5, ptr noundef nonnull @"__func__._ZZN32pxrInternal_v0_24__pxrReserved__21ArchGetExecutablePathB5cxx11EvENK3$_0clEPcPm", i64 noundef 109, ptr noundef nonnull @.str.1)
  store i64 -1, ptr %.val3, align 8
  br label %"_ZSt10__invoke_rIbRZN32pxrInternal_v0_24__pxrReserved__21ArchGetExecutablePathB5cxx11EvE3$_0JPcPmEENSt9enable_ifIX16is_invocable_r_vIT_T0_DpT1_EES6_E4typeEOS7_DpOS8_.exit"

9:                                                ; preds = %3
  %10 = load i64, ptr %.val3, align 8
  %.not.i.i.i = icmp ult i64 %6, %10
  br i1 %.not.i.i.i, label %22, label %11

11:                                               ; preds = %9
  %12 = call i32 @lstat(ptr noundef nonnull @.str.4, ptr noundef nonnull %4) #15
  %13 = icmp eq i32 %12, 0
  br i1 %13, label %14, label %18

14:                                               ; preds = %11
  %15 = getelementptr inbounds nuw i8, ptr %4, i64 48
  %16 = load i64, ptr %15, align 8
  %17 = add nsw i64 %16, 1
  br label %21

18:                                               ; preds = %11
  %19 = load i64, ptr %.val3, align 8
  %20 = shl i64 %19, 1
  br label %21

21:                                               ; preds = %18, %14
  %storemerge.i.i.i = phi i64 [ %20, %18 ], [ %17, %14 ]
  store i64 %storemerge.i.i.i, ptr %.val3, align 8
  br label %"_ZSt10__invoke_rIbRZN32pxrInternal_v0_24__pxrReserved__21ArchGetExecutablePathB5cxx11EvE3$_0JPcPmEENSt9enable_ifIX16is_invocable_r_vIT_T0_DpT1_EES6_E4typeEOS7_DpOS8_.exit"

22:                                               ; preds = %9
  %23 = getelementptr inbounds i8, ptr %.val, i64 %6
  store i8 0, ptr %23, align 1
  br label %"_ZSt10__invoke_rIbRZN32pxrInternal_v0_24__pxrReserved__21ArchGetExecutablePathB5cxx11EvE3$_0JPcPmEENSt9enable_ifIX16is_invocable_r_vIT_T0_DpT1_EES6_E4typeEOS7_DpOS8_.exit"

"_ZSt10__invoke_rIbRZN32pxrInternal_v0_24__pxrReserved__21ArchGetExecutablePathB5cxx11EvE3$_0JPcPmEENSt9enable_ifIX16is_invocable_r_vIT_T0_DpT1_EES6_E4typeEOS7_DpOS8_.exit": ; preds = %8, %21, %22
  %.0.i.i.i = phi i1 [ false, %8 ], [ false, %21 ], [ true, %22 ]
  call void @llvm.lifetime.end.p0(i64 144, ptr nonnull %4)
  ret i1 %.0.i.i.i
}